target datalayout = "e-m:e-p270:32:32-p271:32:32-p272:64:64-i64:64-i128:128-f80:128-n8:16:32:64-S128"
target triple = "x86_64-pc-linux-gnu"

; Function Attrs: null_pointer_is_valid sspstrong uwtable
define hidden zeroext i16 @de_emm_ue_add_sec_cap(ptr noundef %0, ptr noundef %1, ptr noundef %2, i32 noundef %3, i32 noundef %4, ptr noundef %5, i32 noundef %6) #1 {
  %8 = alloca ptr, align 8
  %9 = alloca ptr, align 8
  %10 = alloca ptr, align 8
  %11 = alloca i32, align 4
  %12 = alloca i32, align 4
  %13 = alloca ptr, align 8
  %14 = alloca i32, align 4
  %15 = alloca i32, align 4
  store ptr %0, ptr %8, align 8
  store ptr %1, ptr %9, align 8
  store ptr %2, ptr %10, align 8
  store i32 %3, ptr %11, align 4
  store i32 %4, ptr %12, align 4
  store ptr %5, ptr %13, align 8
  store i32 %6, ptr %14, align 4
  call void @llvm.lifetime.start.p0(i64 4, ptr %15) #10
  %16 = load i32, ptr %11, align 4
  store i32 %16, ptr %15, align 4
  %17 = load ptr, ptr %9, align 8
  %18 = load ptr, ptr %8, align 8
  %19 = load i32, ptr %15, align 4
  call void @proto_tree_add_bitmask_list(ptr noundef %17, ptr noundef %18, i32 noundef %19, i32 noundef 1, ptr noundef @de_emm_ue_add_sec_cap.oct3_flags, i32 noundef 0)
  %20 = load i32, ptr %15, align 4
  %21 = add i32 %20, 1
  store i32 %21, ptr %15, align 4
  %22 = load ptr, ptr %9, align 8
  %23 = load ptr, ptr %8, align 8
  %24 = load i32, ptr %15, align 4
  call void @proto_tree_add_bitmask_list(ptr noundef %22, ptr noundef %23, i32 noundef %24, i32 noundef 1, ptr noundef @de_emm_ue_add_sec_cap.oct4_flags, i32 noundef 0)
  %25 = load i32, ptr %15, align 4
  %26 = add i32 %25, 1
  store i32 %26, ptr %15, align 4
  %27 = load ptr, ptr %9, align 8
  %28 = load ptr, ptr %8, align 8
  %29 = load i32, ptr %15, align 4
  call void @proto_tree_add_bitmask_list(ptr noundef %27, ptr noundef %28, i32 noundef %29, i32 noundef 1, ptr noundef @de_emm_ue_add_sec_cap.oct5_flags, i32 noundef 0)
  %30 = load i32, ptr %15, align 4
  %31 = add i32 %30, 1
  store i32 %31, ptr %15, align 4
  %32 = load ptr, ptr %9, align 8
  %33 = load ptr, ptr %8, align 8
  %34 = load i32, ptr %15, align 4
  call void @proto_tree_add_bitmask_list(ptr noundef %32, ptr noundef %33, i32 noundef %34, i32 noundef 1, ptr noundef @de_emm_ue_add_sec_cap.oct6_flags, i32 noundef 0)
  %35 = load i32, ptr %15, align 4
  %36 = add i32 %35, 1
  store i32 %36, ptr %15, align 4
  call void @llvm.lifetime.end.p0(i64 4, ptr %15) #10
  ret i16 4
}