; Function Attrs: null_pointer_is_valid sspstrong uwtable
define hidden noundef zeroext i16 @de_emm_ue_add_sec_cap(ptr noundef %0, ptr noundef %1, ptr readnone captures(none) %2, i32 noundef %3, i32 %4, ptr readnone captures(none) %5, i32 %6) #1 {
  tail call void @proto_tree_add_bitmask_list(ptr noundef %1, ptr noundef %0, i32 noundef %3, i32 noundef 1, ptr noundef nonnull @de_emm_ue_add_sec_cap.oct3_flags, i32 noundef 0)
  %8 = add i32 %3, 1
  tail call void @proto_tree_add_bitmask_list(ptr noundef %1, ptr noundef %0, i32 noundef %8, i32 noundef 1, ptr noundef nonnull @de_emm_ue_add_sec_cap.oct4_flags, i32 noundef 0)
  %9 = add i32 %3, 2
  tail call void @proto_tree_add_bitmask_list(ptr noundef %1, ptr noundef %0, i32 noundef %9, i32 noundef 1, ptr noundef nonnull @de_emm_ue_add_sec_cap.oct5_flags, i32 noundef 0)
  %10 = add i32 %3, 3
  tail call void @proto_tree_add_bitmask_list(ptr noundef %1, ptr noundef %0, i32 noundef %10, i32 noundef 1, ptr noundef nonnull @de_emm_ue_add_sec_cap.oct6_flags, i32 noundef 0)
  ret i16 4
}